target datalayout = "e-m:e-p270:32:32-p271:32:32-p272:64:64-i64:64-i128:128-f80:128-n8:16:32:64-S128"
target triple = "x86_64-pc-linux-gnu"

%struct.darktable_t = type { %struct.dt_codepath_t, i32, i32, ptr, ptr, ptr, ptr, ptr, ptr, ptr, ptr, ptr, ptr, ptr, ptr, ptr, ptr, ptr, ptr, ptr, ptr, ptr, ptr, ptr, ptr, ptr, ptr, ptr, ptr, ptr, [64 x %struct.dt_pthread_mutex_t], %struct.dt_pthread_mutex_t, %struct.dt_pthread_mutex_t, %struct.dt_pthread_mutex_t, %struct.dt_pthread_mutex_t, %struct.dt_pthread_mutex_t, ptr, ptr, ptr, ptr, ptr, ptr, ptr, ptr, ptr, ptr, ptr, ptr, ptr, %struct.dt_lua_state_t, ptr, double, ptr, i32, [47 x i32], i32, i32, ptr, ptr, %struct.dt_sys_resources_t, %struct.dt_backthumb_t, %struct.dt_gimp_t }
%struct.dt_codepath_t = type { i8, [3 x i8] }
%struct.dt_pthread_mutex_t = type { %union.pthread_mutex_t }
%union.pthread_mutex_t = type { %struct.__pthread_mutex_s }
%struct.__pthread_mutex_s = type { i32, i32, i32, i32, i32, i16, i16, %struct.__pthread_internal_list }
%struct.__pthread_internal_list = type { ptr, ptr }
%struct.dt_lua_state_t = type { i32 }
%struct.dt_sys_resources_t = type { i64, i64, ptr, ptr, i32 }
%struct.dt_backthumb_t = type { double, double, i32, i32, i32, i32 }
%struct.dt_gimp_t = type { i32, ptr, ptr, i32, i32 }
%struct.dt_pwstorage_t = type { i32, ptr }

@darktable = external global %struct.darktable_t, align 8
@.str.26 = private unnamed_addr constant [49 x i8] c"[pwstorage_set] no backend. not storing anything\00", align 1

; Function Attrs: nounwind uwtable
define i32 @dt_pwstorage_set(ptr noundef %0, ptr noundef %1) #0 {
  %3 = alloca i32, align 4
  %4 = alloca ptr, align 8
  %5 = alloca ptr, align 8
  store ptr %0, ptr %4, align 8, !tbaa !49
  store ptr %1, ptr %5, align 8, !tbaa !55
  %6 = load ptr, ptr getelementptr inbounds nuw (%struct.darktable_t, ptr @darktable, i32 0, i32 19), align 8, !tbaa !54
  %7 = getelementptr inbounds nuw %struct.dt_pwstorage_t, ptr %6, i32 0, i32 0
  %8 = load i32, ptr %7, align 8, !tbaa !51
  switch i32 %8, label %29 [
    i32 0, label %9
    i32 2, label %29
    i32 1, label %22
    i32 3, label %29
    i32 4, label %29
  ]

9:                                                ; preds = %2
  br label %10

10:                                               ; preds = %9
  %11 = load i32, ptr getelementptr inbounds nuw (%struct.darktable_t, ptr @darktable, i32 0, i32 2), align 8, !tbaa !11
  %12 = and i32 64, %11
  %13 = icmp ne i32 %12, 0
  br i1 %13, label %14, label %20

14:                                               ; preds = %10
  %15 = load i32, ptr getelementptr inbounds nuw (%struct.darktable_t, ptr @darktable, i32 0, i32 2), align 8, !tbaa !11
  %16 = xor i32 %15, -1
  %17 = and i32 0, %16
  %18 = icmp ne i32 %17, 0
  br i1 %18, label %20, label %19

19:                                               ; preds = %14
  call void (ptr, ...) @dt_print_ext(ptr noundef @.str.26)
  br label %20

20:                                               ; preds = %19, %14, %10
  br label %21

21:                                               ; preds = %20
  br label %29

22:                                               ; preds = %2
  %23 = load ptr, ptr getelementptr inbounds nuw (%struct.darktable_t, ptr @darktable, i32 0, i32 19), align 8, !tbaa !54
  %24 = getelementptr inbounds nuw %struct.dt_pwstorage_t, ptr %23, i32 0, i32 1
  %25 = load ptr, ptr %24, align 8, !tbaa !53
  %26 = load ptr, ptr %4, align 8, !tbaa !49
  %27 = load ptr, ptr %5, align 8, !tbaa !55
  %28 = call i32 @dt_pwstorage_kwallet_set(ptr noundef %25, ptr noundef %26, ptr noundef %27)
  store i32 %28, ptr %3, align 4
  br label %30

29:                                               ; preds = %2, %2, %2, %2, %21
  store i32 0, ptr %3, align 4
  br label %30

30:                                               ; preds = %29, %22
  %31 = load i32, ptr %3, align 4
  ret i32 %31
}