; Function Attrs: nounwind uwtable
define i32 @dt_pwstorage_set(ptr noundef %0, ptr noundef %1) local_unnamed_addr #0 {
  %3 = load ptr, ptr getelementptr inbounds nuw (i8, ptr @darktable, i64 144), align 8, !tbaa !51
  %4 = load i32, ptr %3, align 8, !tbaa !48
  switch i32 %4, label %13 [
    i32 0, label %5
    i32 1, label %9
  ]

5:                                                ; preds = %2
  %6 = load i32, ptr getelementptr inbounds nuw (i8, ptr @darktable, i64 8), align 8, !tbaa !6
  %7 = and i32 %6, 64
  %.not = icmp eq i32 %7, 0
  br i1 %.not, label %13, label %8

8:                                                ; preds = %5
  tail call void (ptr, ...) @dt_print_ext(ptr noundef nonnull @.str.26) #6
  br label %13

9:                                                ; preds = %2
  %10 = getelementptr inbounds nuw i8, ptr %3, i64 8
  %11 = load ptr, ptr %10, align 8, !tbaa !50
  %12 = tail call i32 @dt_pwstorage_kwallet_set(ptr noundef %11, ptr noundef %0, ptr noundef %1) #6
  br label %13

13:                                               ; preds = %2, %5, %8, %9
  %.0 = phi i32 [ %12, %9 ], [ 0, %8 ], [ 0, %5 ], [ 0, %2 ]
  ret i32 %.0
}